target datalayout = "e-m:e-p270:32:32-p271:32:32-p272:64:64-i64:64-i128:128-f80:128-n8:16:32:64-S128"
target triple = "x86_64-pc-linux-gnu"

%struct.Map_ManStruct_t_ = type { ptr, i32, ptr, i32, ptr, i32, i32, ptr, ptr, ptr, ptr, ptr, ptr, ptr, i32, i32, i32, i32, float, float, float, float, i32, i32, float, i32, i32, i32, i32, ptr, [6 x [2 x i32]], [10 x [32 x i32]], [32 x i32], [32 x i32], ptr, ptr, ptr, ptr, ptr, ptr, i32, i32, i32, i32, i32, i32, i64, i64, i64, i64, i64, i64, i64, i64, i64, i64, i64 }
%struct.Map_NodeStruct_t_ = type { ptr, ptr, i32, i32, i32, i32, [3 x i32], [3 x float], float, ptr, ptr, ptr, ptr, [2 x %struct.Map_TimeStruct_t_], [2 x %struct.Map_TimeStruct_t_], [2 x ptr], ptr, ptr, ptr }
%struct.Map_TimeStruct_t_ = type { float, float, float }
%struct.Map_CutStruct_t_ = type { ptr, ptr, ptr, [6 x ptr], i32, i8, i8, i8, i8, [2 x %struct.Map_MatchStruct_t_] }
%struct.Map_MatchStruct_t_ = type { ptr, i32, i32, ptr, %struct.Map_TimeStruct_t_, float }
%struct.Map_SuperStruct_t_ = type { i32, i32, [4 x i8], i32, [6 x ptr], ptr, [2 x i32], [6 x %struct.Map_TimeStruct_t_], [6 x %struct.Map_TimeStruct_t_], %struct.Map_TimeStruct_t_, float, ptr, ptr }

; Function Attrs: nounwind uwtable
define float @Map_TimeCutComputeArrival(ptr noundef %0, ptr noundef %1, i32 noundef %2, float noundef %3) #0 {
  %5 = alloca float, align 4
  %6 = alloca ptr, align 8
  %7 = alloca ptr, align 8
  %8 = alloca i32, align 4
  %9 = alloca float, align 4
  %10 = alloca ptr, align 8
  %11 = alloca ptr, align 8
  %12 = alloca i32, align 4
  %13 = alloca ptr, align 8
  %14 = alloca ptr, align 8
  %15 = alloca i32, align 4
  %16 = alloca float, align 4
  %17 = alloca float, align 4
  %18 = alloca i32, align 4
  store ptr %0, ptr %6, align 8
  store ptr %1, ptr %7, align 8
  store i32 %2, ptr %8, align 4
  store float %3, ptr %9, align 4
  %19 = load ptr, ptr %7, align 8
  %20 = getelementptr inbounds %struct.Map_CutStruct_t_, ptr %19, i32 0, i32 9
  %21 = getelementptr inbounds [2 x %struct.Map_MatchStruct_t_], ptr %20, i64 0, i64 0
  %22 = load i32, ptr %8, align 4
  %23 = sext i32 %22 to i64
  %24 = getelementptr inbounds %struct.Map_MatchStruct_t_, ptr %21, i64 %23
  store ptr %24, ptr %10, align 8
  %25 = load ptr, ptr %10, align 8
  %26 = getelementptr inbounds %struct.Map_MatchStruct_t_, ptr %25, i32 0, i32 3
  %27 = load ptr, ptr %26, align 8
  store ptr %27, ptr %11, align 8
  %28 = load ptr, ptr %10, align 8
  %29 = getelementptr inbounds %struct.Map_MatchStruct_t_, ptr %28, i32 0, i32 2
  %30 = load i32, ptr %29, align 4
  store i32 %30, ptr %12, align 4
  %31 = load ptr, ptr %10, align 8
  %32 = getelementptr inbounds %struct.Map_MatchStruct_t_, ptr %31, i32 0, i32 4
  store ptr %32, ptr %13, align 8
  %33 = load ptr, ptr %6, align 8
  %34 = getelementptr inbounds %struct.Map_NodeStruct_t_, ptr %33, i32 0, i32 0
  %35 = load ptr, ptr %34, align 8
  %36 = getelementptr inbounds %struct.Map_ManStruct_t_, ptr %35, i32 0, i32 10
  %37 = load ptr, ptr %36, align 8
  %38 = icmp ne ptr %37, null
  br i1 %38, label %39, label %51

39:                                               ; preds = %4
  %40 = load ptr, ptr %6, align 8
  %41 = getelementptr inbounds %struct.Map_NodeStruct_t_, ptr %40, i32 0, i32 0
  %42 = load ptr, ptr %41, align 8
  %43 = getelementptr inbounds %struct.Map_ManStruct_t_, ptr %42, i32 0, i32 10
  %44 = load ptr, ptr %43, align 8
  %45 = load ptr, ptr %6, align 8
  %46 = getelementptr inbounds %struct.Map_NodeStruct_t_, ptr %45, i32 0, i32 2
  %47 = load i32, ptr %46, align 8
  %48 = sext i32 %47 to i64
  %49 = getelementptr inbounds float, ptr %44, i64 %48
  %50 = load float, ptr %49, align 4
  br label %52

51:                                               ; preds = %4
  br label %52

52:                                               ; preds = %51, %39
  %53 = phi float [ %50, %39 ], [ 0.000000e+00, %51 ]
  store float %53, ptr %17, align 4
  %54 = load ptr, ptr %13, align 8
  %55 = getelementptr inbounds %struct.Map_TimeStruct_t_, ptr %54, i32 0, i32 1
  store float 0.000000e+00, ptr %55, align 4
  %56 = load ptr, ptr %13, align 8
  %57 = getelementptr inbounds %struct.Map_TimeStruct_t_, ptr %56, i32 0, i32 0
  store float 0.000000e+00, ptr %57, align 4
  %58 = load ptr, ptr %13, align 8
  %59 = getelementptr inbounds %struct.Map_TimeStruct_t_, ptr %58, i32 0, i32 2
  store float 0x47B9999980000000, ptr %59, align 4
  %60 = load ptr, ptr %7, align 8
  %61 = getelementptr inbounds %struct.Map_CutStruct_t_, ptr %60, i32 0, i32 5
  %62 = load i8, ptr %61, align 4
  %63 = sext i8 %62 to i32
  %64 = sub nsw i32 %63, 1
  store i32 %64, ptr %18, align 4
  br label %65

65:                                               ; preds = %238, %52
  %66 = load i32, ptr %18, align 4
  %67 = icmp sge i32 %66, 0
  br i1 %67, label %68, label %241

68:                                               ; preds = %65
  %69 = load i32, ptr %12, align 4
  %70 = load i32, ptr %18, align 4
  %71 = shl i32 1, %70
  %72 = and i32 %69, %71
  %73 = icmp eq i32 %72, 0
  %74 = zext i1 %73 to i32
  store i32 %74, ptr %15, align 4
  %75 = load ptr, ptr %7, align 8
  %76 = getelementptr inbounds %struct.Map_CutStruct_t_, ptr %75, i32 0, i32 3
  %77 = load i32, ptr %18, align 4
  %78 = sext i32 %77 to i64
  %79 = getelementptr inbounds [6 x ptr], ptr %76, i64 0, i64 %78
  %80 = load ptr, ptr %79, align 8
  %81 = getelementptr inbounds %struct.Map_NodeStruct_t_, ptr %80, i32 0, i32 13
  %82 = getelementptr inbounds [2 x %struct.Map_TimeStruct_t_], ptr %81, i64 0, i64 0
  %83 = load i32, ptr %15, align 4
  %84 = sext i32 %83 to i64
  %85 = getelementptr inbounds %struct.Map_TimeStruct_t_, ptr %82, i64 %84
  store ptr %85, ptr %14, align 8
  %86 = load ptr, ptr %11, align 8
  %87 = getelementptr inbounds %struct.Map_SuperStruct_t_, ptr %86, i32 0, i32 7
  %88 = load i32, ptr %18, align 4
  %89 = sext i32 %88 to i64
  %90 = getelementptr inbounds [6 x %struct.Map_TimeStruct_t_], ptr %87, i64 0, i64 %89
  %91 = getelementptr inbounds %struct.Map_TimeStruct_t_, ptr %90, i32 0, i32 0
  %92 = load float, ptr %91, align 4
  %93 = fcmp ogt float %92, 0.000000e+00
  br i1 %93, label %94, label %123

94:                                               ; preds = %68
  %95 = load ptr, ptr %14, align 8
  %96 = getelementptr inbounds %struct.Map_TimeStruct_t_, ptr %95, i32 0, i32 0
  %97 = load float, ptr %96, align 4
  %98 = load ptr, ptr %11, align 8
  %99 = getelementptr inbounds %struct.Map_SuperStruct_t_, ptr %98, i32 0, i32 7
  %100 = load i32, ptr %18, align 4
  %101 = sext i32 %100 to i64
  %102 = getelementptr inbounds [6 x %struct.Map_TimeStruct_t_], ptr %99, i64 0, i64 %101
  %103 = getelementptr inbounds %struct.Map_TimeStruct_t_, ptr %102, i32 0, i32 0
  %104 = load float, ptr %103, align 4
  %105 = fadd float %97, %104
  %106 = load float, ptr %17, align 4
  %107 = fadd float %105, %106
  store float %107, ptr %16, align 4
  %108 = load float, ptr %16, align 4
  %109 = load float, ptr %9, align 4
  %110 = fcmp ogt float %108, %109
  br i1 %110, label %111, label %112

111:                                              ; preds = %94
  store float 0x47B9999980000000, ptr %5, align 4
  br label %264

112:                                              ; preds = %94
  %113 = load ptr, ptr %13, align 8
  %114 = getelementptr inbounds %struct.Map_TimeStruct_t_, ptr %113, i32 0, i32 0
  %115 = load float, ptr %114, align 4
  %116 = load float, ptr %16, align 4
  %117 = fcmp olt float %115, %116
  br i1 %117, label %118, label %122

118:                                              ; preds = %112
  %119 = load float, ptr %16, align 4
  %120 = load ptr, ptr %13, align 8
  %121 = getelementptr inbounds %struct.Map_TimeStruct_t_, ptr %120, i32 0, i32 0
  store float %119, ptr %121, align 4
  br label %122

122:                                              ; preds = %118, %112
  br label %123

123:                                              ; preds = %122, %68
  %124 = load ptr, ptr %11, align 8
  %125 = getelementptr inbounds %struct.Map_SuperStruct_t_, ptr %124, i32 0, i32 7
  %126 = load i32, ptr %18, align 4
  %127 = sext i32 %126 to i64
  %128 = getelementptr inbounds [6 x %struct.Map_TimeStruct_t_], ptr %125, i64 0, i64 %127
  %129 = getelementptr inbounds %struct.Map_TimeStruct_t_, ptr %128, i32 0, i32 1
  %130 = load float, ptr %129, align 4
  %131 = fcmp ogt float %130, 0.000000e+00
  br i1 %131, label %132, label %161

132:                                              ; preds = %123
  %133 = load ptr, ptr %14, align 8
  %134 = getelementptr inbounds %struct.Map_TimeStruct_t_, ptr %133, i32 0, i32 1
  %135 = load float, ptr %134, align 4
  %136 = load ptr, ptr %11, align 8
  %137 = getelementptr inbounds %struct.Map_SuperStruct_t_, ptr %136, i32 0, i32 7
  %138 = load i32, ptr %18, align 4
  %139 = sext i32 %138 to i64
  %140 = getelementptr inbounds [6 x %struct.Map_TimeStruct_t_], ptr %137, i64 0, i64 %139
  %141 = getelementptr inbounds %struct.Map_TimeStruct_t_, ptr %140, i32 0, i32 1
  %142 = load float, ptr %141, align 4
  %143 = fadd float %135, %142
  %144 = load float, ptr %17, align 4
  %145 = fadd float %143, %144
  store float %145, ptr %16, align 4
  %146 = load float, ptr %16, align 4
  %147 = load float, ptr %9, align 4
  %148 = fcmp ogt float %146, %147
  br i1 %148, label %149, label %150

149:                                              ; preds = %132
  store float 0x47B9999980000000, ptr %5, align 4
  br label %264

150:                                              ; preds = %132
  %151 = load ptr, ptr %13, align 8
  %152 = getelementptr inbounds %struct.Map_TimeStruct_t_, ptr %151, i32 0, i32 0
  %153 = load float, ptr %152, align 4
  %154 = load float, ptr %16, align 4
  %155 = fcmp olt float %153, %154
  br i1 %155, label %156, label %160

156:                                              ; preds = %150
  %157 = load float, ptr %16, align 4
  %158 = load ptr, ptr %13, align 8
  %159 = getelementptr inbounds %struct.Map_TimeStruct_t_, ptr %158, i32 0, i32 0
  store float %157, ptr %159, align 4
  br label %160

160:                                              ; preds = %156, %150
  br label %161

161:                                              ; preds = %160, %123
  %162 = load ptr, ptr %11, align 8
  %163 = getelementptr inbounds %struct.Map_SuperStruct_t_, ptr %162, i32 0, i32 8
  %164 = load i32, ptr %18, align 4
  %165 = sext i32 %164 to i64
  %166 = getelementptr inbounds [6 x %struct.Map_TimeStruct_t_], ptr %163, i64 0, i64 %165
  %167 = getelementptr inbounds %struct.Map_TimeStruct_t_, ptr %166, i32 0, i32 0
  %168 = load float, ptr %167, align 4
  %169 = fcmp ogt float %168, 0.000000e+00
  br i1 %169, label %170, label %199

170:                                              ; preds = %161
  %171 = load ptr, ptr %14, align 8
  %172 = getelementptr inbounds %struct.Map_TimeStruct_t_, ptr %171, i32 0, i32 0
  %173 = load float, ptr %172, align 4
  %174 = load ptr, ptr %11, align 8
  %175 = getelementptr inbounds %struct.Map_SuperStruct_t_, ptr %174, i32 0, i32 8
  %176 = load i32, ptr %18, align 4
  %177 = sext i32 %176 to i64
  %178 = getelementptr inbounds [6 x %struct.Map_TimeStruct_t_], ptr %175, i64 0, i64 %177
  %179 = getelementptr inbounds %struct.Map_TimeStruct_t_, ptr %178, i32 0, i32 0
  %180 = load float, ptr %179, align 4
  %181 = fadd float %173, %180
  %182 = load float, ptr %17, align 4
  %183 = fadd float %181, %182
  store float %183, ptr %16, align 4
  %184 = load float, ptr %16, align 4
  %185 = load float, ptr %9, align 4
  %186 = fcmp ogt float %184, %185
  br i1 %186, label %187, label %188

187:                                              ; preds = %170
  store float 0x47B9999980000000, ptr %5, align 4
  br label %264

188:                                              ; preds = %170
  %189 = load ptr, ptr %13, align 8
  %190 = getelementptr inbounds %struct.Map_TimeStruct_t_, ptr %189, i32 0, i32 1
  %191 = load float, ptr %190, align 4
  %192 = load float, ptr %16, align 4
  %193 = fcmp olt float %191, %192
  br i1 %193, label %194, label %198

194:                                              ; preds = %188
  %195 = load float, ptr %16, align 4
  %196 = load ptr, ptr %13, align 8
  %197 = getelementptr inbounds %struct.Map_TimeStruct_t_, ptr %196, i32 0, i32 1
  store float %195, ptr %197, align 4
  br label %198

198:                                              ; preds = %194, %188
  br label %199

199:                                              ; preds = %198, %161
  %200 = load ptr, ptr %11, align 8
  %201 = getelementptr inbounds %struct.Map_SuperStruct_t_, ptr %200, i32 0, i32 8
  %202 = load i32, ptr %18, align 4
  %203 = sext i32 %202 to i64
  %204 = getelementptr inbounds [6 x %struct.Map_TimeStruct_t_], ptr %201, i64 0, i64 %203
  %205 = getelementptr inbounds %struct.Map_TimeStruct_t_, ptr %204, i32 0, i32 1
  %206 = load float, ptr %205, align 4
  %207 = fcmp ogt float %206, 0.000000e+00
  br i1 %207, label %208, label %237

208:                                              ; preds = %199
  %209 = load ptr, ptr %14, align 8
  %210 = getelementptr inbounds %struct.Map_TimeStruct_t_, ptr %209, i32 0, i32 1
  %211 = load float, ptr %210, align 4
  %212 = load ptr, ptr %11, align 8
  %213 = getelementptr inbounds %struct.Map_SuperStruct_t_, ptr %212, i32 0, i32 8
  %214 = load i32, ptr %18, align 4
  %215 = sext i32 %214 to i64
  %216 = getelementptr inbounds [6 x %struct.Map_TimeStruct_t_], ptr %213, i64 0, i64 %215
  %217 = getelementptr inbounds %struct.Map_TimeStruct_t_, ptr %216, i32 0, i32 1
  %218 = load float, ptr %217, align 4
  %219 = fadd float %211, %218
  %220 = load float, ptr %17, align 4
  %221 = fadd float %219, %220
  store float %221, ptr %16, align 4
  %222 = load float, ptr %16, align 4
  %223 = load float, ptr %9, align 4
  %224 = fcmp ogt float %222, %223
  br i1 %224, label %225, label %226

225:                                              ; preds = %208
  store float 0x47B9999980000000, ptr %5, align 4
  br label %264

226:                                              ; preds = %208
  %227 = load ptr, ptr %13, align 8
  %228 = getelementptr inbounds %struct.Map_TimeStruct_t_, ptr %227, i32 0, i32 1
  %229 = load float, ptr %228, align 4
  %230 = load float, ptr %16, align 4
  %231 = fcmp olt float %229, %230
  br i1 %231, label %232, label %236

232:                                              ; preds = %226
  %233 = load float, ptr %16, align 4
  %234 = load ptr, ptr %13, align 8
  %235 = getelementptr inbounds %struct.Map_TimeStruct_t_, ptr %234, i32 0, i32 1
  store float %233, ptr %235, align 4
  br label %236

236:                                              ; preds = %232, %226
  br label %237

237:                                              ; preds = %236, %199
  br label %238

238:                                              ; preds = %237
  %239 = load i32, ptr %18, align 4
  %240 = add nsw i32 %239, -1
  store i32 %240, ptr %18, align 4
  br label %65, !llvm.loop !6

241:                                              ; preds = %65
  %242 = load ptr, ptr %13, align 8
  %243 = getelementptr inbounds %struct.Map_TimeStruct_t_, ptr %242, i32 0, i32 0
  %244 = load float, ptr %243, align 4
  %245 = load ptr, ptr %13, align 8
  %246 = getelementptr inbounds %struct.Map_TimeStruct_t_, ptr %245, i32 0, i32 1
  %247 = load float, ptr %246, align 4
  %248 = fcmp ogt float %244, %247
  br i1 %248, label %249, label %253

249:                                              ; preds = %241
  %250 = load ptr, ptr %13, align 8
  %251 = getelementptr inbounds %struct.Map_TimeStruct_t_, ptr %250, i32 0, i32 0
  %252 = load float, ptr %251, align 4
  br label %257

253:                                              ; preds = %241
  %254 = load ptr, ptr %13, align 8
  %255 = getelementptr inbounds %struct.Map_TimeStruct_t_, ptr %254, i32 0, i32 1
  %256 = load float, ptr %255, align 4
  br label %257

257:                                              ; preds = %253, %249
  %258 = phi float [ %252, %249 ], [ %256, %253 ]
  %259 = load ptr, ptr %13, align 8
  %260 = getelementptr inbounds %struct.Map_TimeStruct_t_, ptr %259, i32 0, i32 2
  store float %258, ptr %260, align 4
  %261 = load ptr, ptr %13, align 8
  %262 = getelementptr inbounds %struct.Map_TimeStruct_t_, ptr %261, i32 0, i32 2
  %263 = load float, ptr %262, align 4
  store float %263, ptr %5, align 4
  br label %264

264:                                              ; preds = %257, %225, %187, %149, %111
  %265 = load float, ptr %5, align 4
  ret float %265
}