; Function Attrs: nofree norecurse nosync nounwind memory(read, argmem: readwrite, inaccessiblemem: none) uwtable
define float @Map_TimeCutComputeArrival(ptr noundef readonly captures(none) %0, ptr noundef captures(none) %1, i32 noundef %2, float noundef %3) local_unnamed_addr #2 {
  %5 = getelementptr inbounds nuw i8, ptr %1, i64 80
  %6 = sext i32 %2 to i64
  %7 = getelementptr inbounds %struct.Map_MatchStruct_t_, ptr %5, i64 %6
  %8 = getelementptr inbounds nuw i8, ptr %7, i64 16
  %9 = load ptr, ptr %8, align 8
  %10 = getelementptr inbounds nuw i8, ptr %7, i64 12
  %11 = load i32, ptr %10, align 4
  %12 = getelementptr inbounds nuw i8, ptr %7, i64 24
  %13 = load ptr, ptr %0, align 8
  %14 = getelementptr inbounds nuw i8, ptr %13, i64 72
  %15 = load ptr, ptr %14, align 8
  %.not = icmp eq ptr %15, null
  br i1 %.not, label %22, label %16

16:                                               ; preds = %4
  %17 = getelementptr inbounds nuw i8, ptr %0, i64 16
  %18 = load i32, ptr %17, align 8
  %19 = sext i32 %18 to i64
  %20 = getelementptr inbounds float, ptr %15, i64 %19
  %21 = load float, ptr %20, align 4
  br label %22

22:                                               ; preds = %4, %16
  %23 = phi float [ %21, %16 ], [ 0.000000e+00, %4 ]
  %24 = getelementptr inbounds nuw i8, ptr %7, i64 28
  store float 0.000000e+00, ptr %24, align 4
  store float 0.000000e+00, ptr %12, align 4
  %25 = getelementptr inbounds nuw i8, ptr %7, i64 32
  store float 0x47B9999980000000, ptr %25, align 4
  %26 = getelementptr inbounds nuw i8, ptr %1, i64 76
  %27 = load i8, ptr %26, align 4
  %28 = icmp sgt i8 %27, 0
  br i1 %28, label %.lr.ph, label %._crit_edge

.lr.ph:                                           ; preds = %22
  %29 = xor i32 %11, -1
  %30 = getelementptr inbounds nuw i8, ptr %1, i64 24
  %31 = getelementptr inbounds nuw i8, ptr %9, i64 80
  %32 = getelementptr inbounds nuw i8, ptr %9, i64 152
  %33 = zext nneg i8 %27 to i64
  br label %34

34:                                               ; preds = %.lr.ph, %102
  %35 = phi float [ 0.000000e+00, %.lr.ph ], [ %103, %102 ]
  %36 = phi float [ 0.000000e+00, %.lr.ph ], [ %104, %102 ]
  %37 = phi float [ 0.000000e+00, %.lr.ph ], [ %74, %102 ]
  %38 = phi float [ 0.000000e+00, %.lr.ph ], [ %75, %102 ]
  %indvars.iv = phi i64 [ %33, %.lr.ph ], [ %indvars.iv.next, %102 ]
  %indvars.iv.next = add nsw i64 %indvars.iv, -1
  %39 = trunc nsw i64 %indvars.iv.next to i32
  %40 = lshr i32 %29, %39
  %41 = and i32 %40, 1
  %42 = getelementptr inbounds nuw [6 x ptr], ptr %30, i64 0, i64 %indvars.iv.next
  %43 = load ptr, ptr %42, align 8
  %44 = getelementptr inbounds nuw i8, ptr %43, i64 96
  %45 = zext nneg i32 %41 to i64
  %46 = getelementptr inbounds nuw %struct.Map_TimeStruct_t_, ptr %44, i64 %45
  %47 = getelementptr inbounds nuw [6 x %struct.Map_TimeStruct_t_], ptr %31, i64 0, i64 %indvars.iv.next
  %48 = load float, ptr %47, align 4
  %49 = fcmp ogt float %48, 0.000000e+00
  br i1 %49, label %50, label %58

50:                                               ; preds = %34
  %51 = load float, ptr %46, align 4
  %52 = fadd float %48, %51
  %53 = fadd float %23, %52
  %54 = fcmp ogt float %53, %3
  br i1 %54, label %.loopexit, label %55

55:                                               ; preds = %50
  %56 = fcmp olt float %38, %53
  br i1 %56, label %57, label %58

57:                                               ; preds = %55
  store float %53, ptr %12, align 4
  br label %58

58:                                               ; preds = %55, %57, %34
  %59 = phi float [ %37, %55 ], [ %53, %57 ], [ %37, %34 ]
  %60 = phi float [ %38, %55 ], [ %53, %57 ], [ %38, %34 ]
  %61 = getelementptr inbounds nuw i8, ptr %47, i64 4
  %62 = load float, ptr %61, align 4
  %63 = fcmp ogt float %62, 0.000000e+00
  br i1 %63, label %64, label %73

64:                                               ; preds = %58
  %65 = getelementptr inbounds nuw i8, ptr %46, i64 4
  %66 = load float, ptr %65, align 4
  %67 = fadd float %62, %66
  %68 = fadd float %23, %67
  %69 = fcmp ogt float %68, %3
  br i1 %69, label %.loopexit, label %70

70:                                               ; preds = %64
  %71 = fcmp olt float %59, %68
  br i1 %71, label %72, label %73

72:                                               ; preds = %70
  store float %68, ptr %12, align 4
  br label %73

73:                                               ; preds = %70, %72, %58
  %74 = phi float [ %59, %70 ], [ %68, %72 ], [ %59, %58 ]
  %75 = phi float [ %59, %70 ], [ %68, %72 ], [ %60, %58 ]
  %76 = getelementptr inbounds nuw [6 x %struct.Map_TimeStruct_t_], ptr %32, i64 0, i64 %indvars.iv.next
  %77 = load float, ptr %76, align 4
  %78 = fcmp ogt float %77, 0.000000e+00
  br i1 %78, label %79, label %87

79:                                               ; preds = %73
  %80 = load float, ptr %46, align 4
  %81 = fadd float %77, %80
  %82 = fadd float %23, %81
  %83 = fcmp ogt float %82, %3
  br i1 %83, label %.loopexit, label %84

84:                                               ; preds = %79
  %85 = fcmp olt float %36, %82
  br i1 %85, label %86, label %87

86:                                               ; preds = %84
  store float %82, ptr %24, align 4
  br label %87

87:                                               ; preds = %84, %86, %73
  %88 = phi float [ %35, %84 ], [ %82, %86 ], [ %35, %73 ]
  %89 = phi float [ %36, %84 ], [ %82, %86 ], [ %36, %73 ]
  %90 = getelementptr inbounds nuw i8, ptr %76, i64 4
  %91 = load float, ptr %90, align 4
  %92 = fcmp ogt float %91, 0.000000e+00
  br i1 %92, label %93, label %102

93:                                               ; preds = %87
  %94 = getelementptr inbounds nuw i8, ptr %46, i64 4
  %95 = load float, ptr %94, align 4
  %96 = fadd float %91, %95
  %97 = fadd float %23, %96
  %98 = fcmp ogt float %97, %3
  br i1 %98, label %.loopexit, label %99

99:                                               ; preds = %93
  %100 = fcmp olt float %88, %97
  br i1 %100, label %101, label %102

101:                                              ; preds = %99
  store float %97, ptr %24, align 4
  br label %102

102:                                              ; preds = %87, %101, %99
  %103 = phi float [ %88, %87 ], [ %97, %101 ], [ %88, %99 ]
  %104 = phi float [ %89, %87 ], [ %97, %101 ], [ %88, %99 ]
  %105 = icmp samesign ugt i64 %indvars.iv, 1
  br i1 %105, label %34, label %._crit_edge, !llvm.loop !6

._crit_edge:                                      ; preds = %102, %22
  %106 = phi float [ 0.000000e+00, %22 ], [ %103, %102 ]
  %107 = phi float [ 0.000000e+00, %22 ], [ %74, %102 ]
  %108 = fcmp ogt float %107, %106
  %. = select i1 %108, float %107, float %106
  store float %., ptr %25, align 4
  br label %.loopexit

.loopexit:                                        ; preds = %93, %79, %64, %50, %._crit_edge
  %.073 = phi float [ %., %._crit_edge ], [ 0x47B9999980000000, %50 ], [ 0x47B9999980000000, %64 ], [ 0x47B9999980000000, %79 ], [ 0x47B9999980000000, %93 ]
  ret float %.073
}